target datalayout = "e-m:e-p270:32:32-p271:32:32-p272:64:64-i64:64-i128:128-f80:128-n8:16:32:64-S128"
target triple = "x86_64-pc-linux-gnu"

%struct.expert_field = type { i32, i32 }
%struct.nstime_t = type { i64, i32 }
%struct._address = type { i32, i32, ptr, ptr }
%struct._packet_info = type { ptr, ptr, i32, i32, %struct.nstime_t, %struct.nstime_t, %struct.nstime_t, i8, ptr, ptr, ptr, ptr, %struct._address, %struct._address, %struct._address, %struct._address, %struct._address, %struct._address, i32, ptr, i8, [3 x i8], %struct.anon, i32, i32, i32, i32, ptr, i8, ptr, ptr, i16, i16, i32, i32, i16, i32, i32, ptr, ptr, ptr, i8, i8, i16, i16, i16, i32, i16, i16, ptr, ptr, ptr, ptr, ptr, i32, i32 }
%struct.anon = type { i8, [3 x i8] }

@bp_compute_crc = internal global i8 1, align 1
@hf_crc_field_uint16 = internal global i32 0, align 4
@hf_crc_field_uint32 = internal global i32 0, align 4
@hf_crc_status = internal global i32 0, align 4
@ei_block_failed_crc = internal global %struct.expert_field zeroinitializer, align 4

; Function Attrs: alwaysinline nounwind
define internal ptr @memset.inline(ptr %0, i32 %1, i64 %2) #14 {
  %4 = alloca ptr, align 8
  %5 = alloca i32, align 4
  %6 = alloca i64, align 8
  store ptr %0, ptr %4, align 8
  store i32 %1, ptr %5, align 4
  store i64 %2, ptr %6, align 8
  %7 = load ptr, ptr %4, align 8
  %8 = load i32, ptr %5, align 4
  %9 = load i64, ptr %6, align 8
  %10 = load ptr, ptr %4, align 8
  %11 = call i64 @llvm.objectsize.i64.p0(ptr %10, i1 false, i1 true, i1 true)
  %12 = call ptr @__memset_chk(ptr noundef %7, i32 noundef %8, i64 noundef %9, i64 noundef %11) #18
  ret ptr %12
}

; Function Attrs: null_pointer_is_valid sspstrong uwtable
define internal void @show_crc_info(ptr noundef %0, ptr noundef %1, ptr noundef %2, ptr noundef %3, ptr noundef %4) #2 {
  %6 = alloca ptr, align 8
  %7 = alloca ptr, align 8
  %8 = alloca ptr, align 8
  %9 = alloca ptr, align 8
  %10 = alloca ptr, align 8
  %11 = alloca i32, align 4
  %12 = alloca i32, align 4
  %13 = alloca i32, align 4
  %14 = alloca i32, align 4
  %15 = alloca ptr, align 8
  store ptr %0, ptr %6, align 8
  store ptr %1, ptr %7, align 8
  store ptr %2, ptr %8, align 8
  store ptr %3, ptr %9, align 8
  store ptr %4, ptr %10, align 8
  %16 = load ptr, ptr %9, align 8
  %17 = icmp ne ptr %16, null
  br i1 %17, label %18, label %21

18:                                               ; preds = %5
  %19 = load ptr, ptr %10, align 8
  %20 = icmp ne ptr %19, null
  br i1 %20, label %22, label %21

21:                                               ; preds = %18, %5
  br label %92

22:                                               ; preds = %18
  call void @llvm.lifetime.start.p0(i64 4, ptr %11) #18
  %23 = load ptr, ptr %9, align 8
  %24 = load i64, ptr %23, align 8
  switch i64 %24, label %29 [
    i64 1, label %25
    i64 2, label %27
  ]

25:                                               ; preds = %22
  %26 = load i32, ptr @hf_crc_field_uint16, align 4
  store i32 %26, ptr %11, align 4
  br label %30

27:                                               ; preds = %22
  %28 = load i32, ptr @hf_crc_field_uint32, align 4
  store i32 %28, ptr %11, align 4
  br label %30

29:                                               ; preds = %22
  store i32 -1, ptr %11, align 4
  br label %30

30:                                               ; preds = %29, %27, %25
  call void @llvm.lifetime.start.p0(i64 4, ptr %12) #18
  store i32 0, ptr %12, align 4
  call void @llvm.lifetime.start.p0(i64 4, ptr %13) #18
  store i32 0, ptr %13, align 4
  %31 = load i8, ptr @bp_compute_crc, align 1, !range !11, !noundef !12
  %32 = trunc i8 %31 to i1
  br i1 %32, label %33, label %83

33:                                               ; preds = %30
  %34 = load ptr, ptr %9, align 8
  %35 = load i64, ptr %34, align 8
  %36 = icmp eq i64 %35, 0
  br i1 %36, label %37, label %40

37:                                               ; preds = %33
  %38 = load i32, ptr %13, align 4
  %39 = or i32 %38, 16
  store i32 %39, ptr %13, align 4
  br label %82

40:                                               ; preds = %33
  call void @llvm.lifetime.start.p0(i64 4, ptr %14) #18
  %41 = load ptr, ptr %6, align 8
  %42 = call i32 @tvb_reported_length(ptr noundef %41)
  store i32 %42, ptr %14, align 4
  call void @llvm.lifetime.start.p0(i64 8, ptr %15) #18
  %43 = load ptr, ptr %7, align 8
  %44 = getelementptr inbounds nuw %struct._packet_info, ptr %43, i32 0, i32 51
  %45 = load ptr, ptr %44, align 8
  %46 = load ptr, ptr %6, align 8
  %47 = load i32, ptr %14, align 4
  %48 = zext i32 %47 to i64
  %49 = call ptr @tvb_memdup(ptr noundef %45, ptr noundef %46, i32 noundef 0, i64 noundef %48)
  store ptr %49, ptr %15, align 8
  %50 = load ptr, ptr %9, align 8
  %51 = load i64, ptr %50, align 8
  switch i64 %51, label %74 [
    i64 1, label %52
    i64 2, label %63
  ]

52:                                               ; preds = %40
  %53 = load ptr, ptr %15, align 8
  %54 = load i32, ptr %14, align 4
  %55 = zext i32 %54 to i64
  %56 = getelementptr i8, ptr %53, i64 %55
  %57 = getelementptr i8, ptr %56, i64 -2
  %58 = call ptr @memset.inline(ptr noundef %57, i32 noundef 0, i64 noundef 2) #18
  %59 = load ptr, ptr %15, align 8
  %60 = load i32, ptr %14, align 4
  %61 = call zeroext i16 @crc16_ccitt(ptr noundef %59, i32 noundef %60)
  %62 = zext i16 %61 to i32
  store i32 %62, ptr %12, align 4
  br label %75

63:                                               ; preds = %40
  %64 = load ptr, ptr %15, align 8
  %65 = load i32, ptr %14, align 4
  %66 = zext i32 %65 to i64
  %67 = getelementptr i8, ptr %64, i64 %66
  %68 = getelementptr i8, ptr %67, i64 -4
  %69 = call ptr @memset.inline(ptr noundef %68, i32 noundef 0, i64 noundef 4) #18
  %70 = load ptr, ptr %15, align 8
  %71 = load i32, ptr %14, align 4
  %72 = call i32 @crc32c_calculate_no_swap(ptr noundef %70, i32 noundef %71, i32 noundef -1)
  %73 = xor i32 %72, -1
  store i32 %73, ptr %12, align 4
  br label %75

74:                                               ; preds = %40
  br label %75

75:                                               ; preds = %74, %63, %52
  %76 = load ptr, ptr %7, align 8
  %77 = getelementptr inbounds nuw %struct._packet_info, ptr %76, i32 0, i32 51
  %78 = load ptr, ptr %77, align 8
  %79 = load ptr, ptr %15, align 8
  call void @wmem_free(ptr noundef %78, ptr noundef %79)
  %80 = load i32, ptr %13, align 4
  %81 = or i32 %80, 1
  store i32 %81, ptr %13, align 4
  call void @llvm.lifetime.end.p0(i64 8, ptr %15) #18
  call void @llvm.lifetime.end.p0(i64 4, ptr %14) #18
  br label %82

82:                                               ; preds = %75, %37
  br label %83

83:                                               ; preds = %82, %30
  %84 = load ptr, ptr %8, align 8
  %85 = load ptr, ptr %10, align 8
  %86 = load i32, ptr %11, align 4
  %87 = load i32, ptr @hf_crc_status, align 4
  %88 = load ptr, ptr %7, align 8
  %89 = load i32, ptr %12, align 4
  %90 = load i32, ptr %13, align 4
  %91 = call ptr @proto_tree_add_checksum(ptr noundef %84, ptr noundef %85, i32 noundef 0, i32 noundef %86, i32 noundef %87, ptr noundef @ei_block_failed_crc, ptr noundef %88, i32 noundef %89, i32 noundef 0, i32 noundef %90)
  call void @llvm.lifetime.end.p0(i64 4, ptr %13) #18
  call void @llvm.lifetime.end.p0(i64 4, ptr %12) #18
  call void @llvm.lifetime.end.p0(i64 4, ptr %11) #18
  br label %92

92:                                               ; preds = %83, %21
  ret void
}