; Function Attrs: null_pointer_is_valid sspstrong uwtable
define internal fastcc void @show_crc_info(ptr noundef %0, ptr noundef %1, ptr noundef %2, ptr noundef readonly captures(address_is_null) %3, ptr noundef %4) unnamed_addr #2 {
  %6 = icmp ne ptr %3, null
  %7 = icmp ne ptr %4, null
  %or.cond = and i1 %6, %7
  br i1 %or.cond, label %8, label %41

8:                                                ; preds = %5
  %9 = load i64, ptr %3, align 8
  switch i64 %9, label %14 [
    i64 1, label %10
    i64 2, label %12
  ]

10:                                               ; preds = %8
  %11 = load i32, ptr @hf_crc_field_uint16, align 4
  br label %14

12:                                               ; preds = %8
  %13 = load i32, ptr @hf_crc_field_uint32, align 4
  br label %14

14:                                               ; preds = %8, %12, %10
  %.0 = phi i32 [ %13, %12 ], [ %11, %10 ], [ -1, %8 ]
  %15 = load i8, ptr @bp_compute_crc, align 1, !range !14, !noundef !15
  %16 = trunc nuw i8 %15 to i1
  br i1 %16, label %17, label %38

17:                                               ; preds = %14
  %18 = icmp eq i64 %9, 0
  br i1 %18, label %38, label %19

19:                                               ; preds = %17
  %20 = tail call i32 @tvb_reported_length(ptr noundef %0)
  %21 = getelementptr inbounds nuw i8, ptr %1, i64 408
  %22 = load ptr, ptr %21, align 8
  %23 = zext i32 %20 to i64
  %24 = tail call ptr @tvb_memdup(ptr noundef %22, ptr noundef %0, i32 noundef 0, i64 noundef %23)
  %25 = load i64, ptr %3, align 8
  switch i64 %25, label %36 [
    i64 1, label %26
    i64 2, label %31
  ]

26:                                               ; preds = %19
  %27 = getelementptr i8, ptr %24, i64 %23
  %28 = getelementptr i8, ptr %27, i64 -2
  store i16 0, ptr %28, align 1
  %29 = tail call zeroext i16 @crc16_ccitt(ptr noundef %24, i32 noundef %20)
  %30 = zext i16 %29 to i32
  br label %36

31:                                               ; preds = %19
  %32 = getelementptr i8, ptr %24, i64 %23
  %33 = getelementptr i8, ptr %32, i64 -4
  store i32 0, ptr %33, align 1
  %34 = tail call i32 @crc32c_calculate_no_swap(ptr noundef %24, i32 noundef %20, i32 noundef -1)
  %35 = xor i32 %34, -1
  br label %36

36:                                               ; preds = %19, %31, %26
  %.1 = phi i32 [ 0, %19 ], [ %35, %31 ], [ %30, %26 ]
  %37 = load ptr, ptr %21, align 8
  tail call void @wmem_free(ptr noundef %37, ptr noundef %24)
  br label %38

38:                                               ; preds = %17, %36, %14
  %.028 = phi i32 [ 1, %36 ], [ 0, %14 ], [ 16, %17 ]
  %.027 = phi i32 [ %.1, %36 ], [ 0, %14 ], [ 0, %17 ]
  %39 = load i32, ptr @hf_crc_status, align 4
  %40 = tail call ptr @proto_tree_add_checksum(ptr noundef %2, ptr noundef nonnull %4, i32 noundef 0, i32 noundef %.0, i32 noundef %39, ptr noundef nonnull @ei_block_failed_crc, ptr noundef %1, i32 noundef %.027, i32 noundef 0, i32 noundef %.028)
  br label %41

41:                                               ; preds = %5, %38
  ret void
}